; Function Attrs: mustprogress nofree norecurse nosync nounwind willreturn memory(readwrite, inaccessiblemem: none) uwtable
define internal noundef i32 @Jac1(double %0, ptr noundef readonly captures(none) %1, ptr readnone captures(none) %2, ptr noundef readonly captures(none) %3, ptr readnone captures(none) %4, ptr readnone captures(none) %5, ptr readnone captures(none) %6, ptr readnone captures(none) %7) #3 {
  %9 = load ptr, ptr %1, align 8, !tbaa !18
  %10 = getelementptr inbounds nuw i8, ptr %9, i64 16
  %11 = load ptr, ptr %10, align 8, !tbaa !21
  %12 = load double, ptr %11, align 8, !tbaa !26
  %13 = getelementptr inbounds nuw i8, ptr %11, i64 8
  %14 = load double, ptr %13, align 8, !tbaa !26
  %15 = load ptr, ptr %3, align 8, !tbaa !30
  %16 = getelementptr inbounds nuw i8, ptr %15, i64 32
  %17 = load ptr, ptr %16, align 8, !tbaa !33
  %18 = getelementptr inbounds nuw i8, ptr %17, i64 8
  %19 = load ptr, ptr %18, align 8, !tbaa !36
  store double 1.000000e+00, ptr %19, align 8, !tbaa !26
  %20 = fmul double %12, -6.000000e+00
  %21 = tail call double @llvm.fmuladd.f64(double %20, double %14, double -1.000000e+00)
  %22 = load ptr, ptr %17, align 8, !tbaa !36
  %23 = getelementptr inbounds nuw i8, ptr %22, i64 8
  store double %21, ptr %23, align 8, !tbaa !26
  %24 = fneg double %12
  %25 = tail call double @llvm.fmuladd.f64(double %24, double %12, double 1.000000e+00)
  %26 = fmul double %25, 3.000000e+00
  %27 = getelementptr inbounds nuw i8, ptr %19, i64 8
  store double %26, ptr %27, align 8, !tbaa !26
  ret i32 0
}